target datalayout = "e-m:e-p270:32:32-p271:32:32-p272:64:64-i64:64-i128:128-f80:128-n8:16:32:64-S128"
target triple = "x86_64-pc-linux-gnu"

%struct.H5P_libclass_t = type { ptr, i32, ptr, ptr, ptr, ptr, ptr, ptr, ptr, ptr, ptr, ptr, ptr }
%struct.H5VL_loc_params_t = type { i32, i32, %union.anon.7 }
%union.anon.7 = type { %struct.H5VL_loc_by_idx }
%struct.H5VL_loc_by_idx = type { ptr, i32, i32, i64, i64 }

@.str.2 = private unnamed_addr constant [101 x i8] c"generated/home/dtcxzyw/WorkSpace/Projects/compilers/llvm-opt-benchmark/bench/hdf5/hdf5/src/H5VLint.c\00", align 1
@H5E_VOL_g = external global i64, align 8
@H5E_CANTSET_g = external global i64, align 8
@H5E_BADVALUE_g = external global i64, align 8
@H5E_BADTYPE_g = external global i64, align 8
@H5E_ARGS_g = external global i64, align 8
@.str.70 = private unnamed_addr constant [28 x i8] c"invalid location identifier\00", align 1
@.str.96 = private unnamed_addr constant [36 x i8] c"can't set access property list info\00", align 1
@.str.97 = private unnamed_addr constant [30 x i8] c"name parameter cannot be NULL\00", align 1
@.str.98 = private unnamed_addr constant [41 x i8] c"name parameter cannot be an empty string\00", align 1
@H5P_CLS_LACC = external constant [1 x %struct.H5P_libclass_t], align 16
@__func__.H5VL_setup_idx_args = private unnamed_addr constant [20 x i8] c"H5VL_setup_idx_args\00", align 1
@.str.99 = private unnamed_addr constant [29 x i8] c"invalid index type specified\00", align 1
@.str.100 = private unnamed_addr constant [34 x i8] c"invalid iteration order specified\00", align 1

; Function Attrs: nounwind uwtable
define i32 @H5VL_setup_idx_args(i64 noundef %0, ptr noundef %1, i32 noundef %2, i32 noundef %3, i64 noundef %4, i1 noundef zeroext %5, i64 noundef %6, ptr noundef %7, ptr noundef %8) #0 {
  %10 = alloca i64, align 8
  %11 = alloca ptr, align 8
  %12 = alloca i32, align 4
  %13 = alloca i32, align 4
  %14 = alloca i64, align 8
  %15 = alloca i8, align 1
  %16 = alloca i64, align 8
  %17 = alloca ptr, align 8
  %18 = alloca ptr, align 8
  %19 = alloca i32, align 4
  %20 = alloca i8, align 1
  store i64 %0, ptr %10, align 8
  store ptr %1, ptr %11, align 8
  store i32 %2, ptr %12, align 4
  store i32 %3, ptr %13, align 4
  store i64 %4, ptr %14, align 8
  %21 = zext i1 %5 to i8
  store i8 %21, ptr %15, align 1
  store i64 %6, ptr %16, align 8
  store ptr %7, ptr %17, align 8
  store ptr %8, ptr %18, align 8
  store i32 0, ptr %19, align 4
  store i8 0, ptr %20, align 1
  %22 = load ptr, ptr %11, align 8
  %23 = icmp ne ptr %22, null
  br i1 %23, label %39, label %24

24:                                               ; preds = %9
  br label %25

25:                                               ; preds = %24
  br label %26

26:                                               ; preds = %25
  br label %27

27:                                               ; preds = %26
  %28 = load i64, ptr @H5E_ARGS_g, align 8
  %29 = load i64, ptr @H5E_BADVALUE_g, align 8
  %30 = call i32 (ptr, ptr, i32, i64, i64, ptr, ...) @H5E_printf_stack(ptr noundef @.str.2, ptr noundef @__func__.H5VL_setup_idx_args, i32 noundef 2712, i64 noundef %28, i64 noundef %29, ptr noundef @.str.97)
  br label %31

31:                                               ; preds = %27
  store i8 1, ptr %20, align 1
  %32 = load i8, ptr %20, align 1
  %33 = trunc i8 %32 to i1
  %34 = zext i1 %33 to i8
  store i8 %34, ptr %20, align 1
  br label %35

35:                                               ; preds = %31
  br label %36

36:                                               ; preds = %35
  store i32 -1, ptr %19, align 4
  br label %168

37:                                               ; No predecessors!
  br label %38

38:                                               ; preds = %37
  br label %39

39:                                               ; preds = %38, %9
  %40 = load ptr, ptr %11, align 8
  %41 = load i8, ptr %40, align 1
  %42 = icmp ne i8 %41, 0
  br i1 %42, label %58, label %43

43:                                               ; preds = %39
  br label %44

44:                                               ; preds = %43
  br label %45

45:                                               ; preds = %44
  br label %46

46:                                               ; preds = %45
  %47 = load i64, ptr @H5E_ARGS_g, align 8
  %48 = load i64, ptr @H5E_BADVALUE_g, align 8
  %49 = call i32 (ptr, ptr, i32, i64, i64, ptr, ...) @H5E_printf_stack(ptr noundef @.str.2, ptr noundef @__func__.H5VL_setup_idx_args, i32 noundef 2714, i64 noundef %47, i64 noundef %48, ptr noundef @.str.98)
  br label %50

50:                                               ; preds = %46
  store i8 1, ptr %20, align 1
  %51 = load i8, ptr %20, align 1
  %52 = trunc i8 %51 to i1
  %53 = zext i1 %52 to i8
  store i8 %53, ptr %20, align 1
  br label %54

54:                                               ; preds = %50
  br label %55

55:                                               ; preds = %54
  store i32 -1, ptr %19, align 4
  br label %168

56:                                               ; No predecessors!
  br label %57

57:                                               ; preds = %56
  br label %58

58:                                               ; preds = %57, %39
  %59 = load i32, ptr %12, align 4
  %60 = icmp sle i32 %59, -1
  br i1 %60, label %64, label %61

61:                                               ; preds = %58
  %62 = load i32, ptr %12, align 4
  %63 = icmp sge i32 %62, 2
  br i1 %63, label %64, label %79

64:                                               ; preds = %61, %58
  br label %65

65:                                               ; preds = %64
  br label %66

66:                                               ; preds = %65
  br label %67

67:                                               ; preds = %66
  %68 = load i64, ptr @H5E_ARGS_g, align 8
  %69 = load i64, ptr @H5E_BADVALUE_g, align 8
  %70 = call i32 (ptr, ptr, i32, i64, i64, ptr, ...) @H5E_printf_stack(ptr noundef @.str.2, ptr noundef @__func__.H5VL_setup_idx_args, i32 noundef 2716, i64 noundef %68, i64 noundef %69, ptr noundef @.str.99)
  br label %71

71:                                               ; preds = %67
  store i8 1, ptr %20, align 1
  %72 = load i8, ptr %20, align 1
  %73 = trunc i8 %72 to i1
  %74 = zext i1 %73 to i8
  store i8 %74, ptr %20, align 1
  br label %75

75:                                               ; preds = %71
  br label %76

76:                                               ; preds = %75
  store i32 -1, ptr %19, align 4
  br label %168

77:                                               ; No predecessors!
  br label %78

78:                                               ; preds = %77
  br label %79

79:                                               ; preds = %78, %61
  %80 = load i32, ptr %13, align 4
  %81 = icmp sle i32 %80, -1
  br i1 %81, label %85, label %82

82:                                               ; preds = %79
  %83 = load i32, ptr %13, align 4
  %84 = icmp sge i32 %83, 3
  br i1 %84, label %85, label %100

85:                                               ; preds = %82, %79
  br label %86

86:                                               ; preds = %85
  br label %87

87:                                               ; preds = %86
  br label %88

88:                                               ; preds = %87
  %89 = load i64, ptr @H5E_ARGS_g, align 8
  %90 = load i64, ptr @H5E_BADVALUE_g, align 8
  %91 = call i32 (ptr, ptr, i32, i64, i64, ptr, ...) @H5E_printf_stack(ptr noundef @.str.2, ptr noundef @__func__.H5VL_setup_idx_args, i32 noundef 2718, i64 noundef %89, i64 noundef %90, ptr noundef @.str.100)
  br label %92

92:                                               ; preds = %88
  store i8 1, ptr %20, align 1
  %93 = load i8, ptr %20, align 1
  %94 = trunc i8 %93 to i1
  %95 = zext i1 %94 to i8
  store i8 %95, ptr %20, align 1
  br label %96

96:                                               ; preds = %92
  br label %97

97:                                               ; preds = %96
  store i32 -1, ptr %19, align 4
  br label %168

98:                                               ; No predecessors!
  br label %99

99:                                               ; preds = %98
  br label %100

100:                                              ; preds = %99, %82
  %101 = load i64, ptr %10, align 8
  %102 = load i8, ptr %15, align 1
  %103 = trunc i8 %102 to i1
  %104 = call i32 @H5CX_set_apl(ptr noundef %16, ptr noundef @H5P_CLS_LACC, i64 noundef %101, i1 noundef zeroext %103)
  %105 = icmp slt i32 %104, 0
  br i1 %105, label %106, label %121

106:                                              ; preds = %100
  br label %107

107:                                              ; preds = %106
  br label %108

108:                                              ; preds = %107
  br label %109

109:                                              ; preds = %108
  %110 = load i64, ptr @H5E_VOL_g, align 8
  %111 = load i64, ptr @H5E_CANTSET_g, align 8
  %112 = call i32 (ptr, ptr, i32, i64, i64, ptr, ...) @H5E_printf_stack(ptr noundef @.str.2, ptr noundef @__func__.H5VL_setup_idx_args, i32 noundef 2722, i64 noundef %110, i64 noundef %111, ptr noundef @.str.96)
  br label %113

113:                                              ; preds = %109
  store i8 1, ptr %20, align 1
  %114 = load i8, ptr %20, align 1
  %115 = trunc i8 %114 to i1
  %116 = zext i1 %115 to i8
  store i8 %116, ptr %20, align 1
  br label %117

117:                                              ; preds = %113
  br label %118

118:                                              ; preds = %117
  store i32 -1, ptr %19, align 4
  br label %168

119:                                              ; No predecessors!
  br label %120

120:                                              ; preds = %119
  br label %121

121:                                              ; preds = %120, %100
  %122 = load i64, ptr %10, align 8
  %123 = call ptr @H5VL_vol_object(i64 noundef %122)
  %124 = load ptr, ptr %17, align 8
  store ptr %123, ptr %124, align 8
  %125 = icmp eq ptr null, %123
  br i1 %125, label %126, label %141

126:                                              ; preds = %121
  br label %127

127:                                              ; preds = %126
  br label %128

128:                                              ; preds = %127
  br label %129

129:                                              ; preds = %128
  %130 = load i64, ptr @H5E_ARGS_g, align 8
  %131 = load i64, ptr @H5E_BADTYPE_g, align 8
  %132 = call i32 (ptr, ptr, i32, i64, i64, ptr, ...) @H5E_printf_stack(ptr noundef @.str.2, ptr noundef @__func__.H5VL_setup_idx_args, i32 noundef 2726, i64 noundef %130, i64 noundef %131, ptr noundef @.str.70)
  br label %133

133:                                              ; preds = %129
  store i8 1, ptr %20, align 1
  %134 = load i8, ptr %20, align 1
  %135 = trunc i8 %134 to i1
  %136 = zext i1 %135 to i8
  store i8 %136, ptr %20, align 1
  br label %137

137:                                              ; preds = %133
  br label %138

138:                                              ; preds = %137
  store i32 -1, ptr %19, align 4
  br label %168

139:                                              ; No predecessors!
  br label %140

140:                                              ; preds = %139
  br label %141

141:                                              ; preds = %140, %121
  %142 = load ptr, ptr %18, align 8
  %143 = getelementptr inbounds %struct.H5VL_loc_params_t, ptr %142, i32 0, i32 1
  store i32 2, ptr %143, align 4
  %144 = load ptr, ptr %11, align 8
  %145 = load ptr, ptr %18, align 8
  %146 = getelementptr inbounds %struct.H5VL_loc_params_t, ptr %145, i32 0, i32 2
  %147 = getelementptr inbounds %struct.H5VL_loc_by_idx, ptr %146, i32 0, i32 0
  store ptr %144, ptr %147, align 8
  %148 = load i32, ptr %12, align 4
  %149 = load ptr, ptr %18, align 8
  %150 = getelementptr inbounds %struct.H5VL_loc_params_t, ptr %149, i32 0, i32 2
  %151 = getelementptr inbounds %struct.H5VL_loc_by_idx, ptr %150, i32 0, i32 1
  store i32 %148, ptr %151, align 8
  %152 = load i32, ptr %13, align 4
  %153 = load ptr, ptr %18, align 8
  %154 = getelementptr inbounds %struct.H5VL_loc_params_t, ptr %153, i32 0, i32 2
  %155 = getelementptr inbounds %struct.H5VL_loc_by_idx, ptr %154, i32 0, i32 2
  store i32 %152, ptr %155, align 4
  %156 = load i64, ptr %14, align 8
  %157 = load ptr, ptr %18, align 8
  %158 = getelementptr inbounds %struct.H5VL_loc_params_t, ptr %157, i32 0, i32 2
  %159 = getelementptr inbounds %struct.H5VL_loc_by_idx, ptr %158, i32 0, i32 3
  store i64 %156, ptr %159, align 8
  %160 = load i64, ptr %16, align 8
  %161 = load ptr, ptr %18, align 8
  %162 = getelementptr inbounds %struct.H5VL_loc_params_t, ptr %161, i32 0, i32 2
  %163 = getelementptr inbounds %struct.H5VL_loc_by_idx, ptr %162, i32 0, i32 4
  store i64 %160, ptr %163, align 8
  %164 = load i64, ptr %10, align 8
  %165 = call i32 @H5I_get_type(i64 noundef %164)
  %166 = load ptr, ptr %18, align 8
  %167 = getelementptr inbounds %struct.H5VL_loc_params_t, ptr %166, i32 0, i32 0
  store i32 %165, ptr %167, align 8
  br label %168

168:                                              ; preds = %141, %138, %118, %97, %76, %55, %36
  %169 = load i32, ptr %19, align 4
  ret i32 %169
}