; Function Attrs: nounwind uwtable
define range(i32 -1, 1) i32 @H5VL_setup_idx_args(i64 noundef %0, ptr noundef %1, i32 noundef %2, i32 noundef %3, i64 noundef %4, i1 noundef zeroext %5, i64 noundef %6, ptr nocapture noundef writeonly %7, ptr nocapture noundef writeonly %8) local_unnamed_addr #0 {
  %10 = alloca i64, align 8
  store i64 %6, ptr %10, align 8
  %.not = icmp eq ptr %1, null
  br i1 %.not, label %11, label %15

11:                                               ; preds = %9
  %12 = load i64, ptr @H5E_ARGS_g, align 8
  %13 = load i64, ptr @H5E_BADVALUE_g, align 8
  %14 = tail call i32 (ptr, ptr, i32, i64, i64, ptr, ...) @H5E_printf_stack(ptr noundef nonnull @.str.2, ptr noundef nonnull @__func__.H5VL_setup_idx_args, i32 noundef 2712, i64 noundef %12, i64 noundef %13, ptr noundef nonnull @.str.97) #10
  br label %54

15:                                               ; preds = %9
  %16 = load i8, ptr %1, align 1
  %.not34 = icmp eq i8 %16, 0
  br i1 %.not34, label %17, label %21

17:                                               ; preds = %15
  %18 = load i64, ptr @H5E_ARGS_g, align 8
  %19 = load i64, ptr @H5E_BADVALUE_g, align 8
  %20 = tail call i32 (ptr, ptr, i32, i64, i64, ptr, ...) @H5E_printf_stack(ptr noundef nonnull @.str.2, ptr noundef nonnull @__func__.H5VL_setup_idx_args, i32 noundef 2714, i64 noundef %18, i64 noundef %19, ptr noundef nonnull @.str.98) #10
  br label %54

21:                                               ; preds = %15
  %or.cond = icmp ugt i32 %2, 1
  br i1 %or.cond, label %22, label %26

22:                                               ; preds = %21
  %23 = load i64, ptr @H5E_ARGS_g, align 8
  %24 = load i64, ptr @H5E_BADVALUE_g, align 8
  %25 = tail call i32 (ptr, ptr, i32, i64, i64, ptr, ...) @H5E_printf_stack(ptr noundef nonnull @.str.2, ptr noundef nonnull @__func__.H5VL_setup_idx_args, i32 noundef 2716, i64 noundef %23, i64 noundef %24, ptr noundef nonnull @.str.99) #10
  br label %54

26:                                               ; preds = %21
  %or.cond3 = icmp ugt i32 %3, 2
  br i1 %or.cond3, label %27, label %31

27:                                               ; preds = %26
  %28 = load i64, ptr @H5E_ARGS_g, align 8
  %29 = load i64, ptr @H5E_BADVALUE_g, align 8
  %30 = tail call i32 (ptr, ptr, i32, i64, i64, ptr, ...) @H5E_printf_stack(ptr noundef nonnull @.str.2, ptr noundef nonnull @__func__.H5VL_setup_idx_args, i32 noundef 2718, i64 noundef %28, i64 noundef %29, ptr noundef nonnull @.str.100) #10
  br label %54

31:                                               ; preds = %26
  %32 = call i32 @H5CX_set_apl(ptr noundef nonnull %10, ptr noundef nonnull @H5P_CLS_LACC, i64 noundef %0, i1 noundef zeroext %5) #10
  %33 = icmp slt i32 %32, 0
  br i1 %33, label %34, label %38

34:                                               ; preds = %31
  %35 = load i64, ptr @H5E_VOL_g, align 8
  %36 = load i64, ptr @H5E_CANTSET_g, align 8
  %37 = call i32 (ptr, ptr, i32, i64, i64, ptr, ...) @H5E_printf_stack(ptr noundef nonnull @.str.2, ptr noundef nonnull @__func__.H5VL_setup_idx_args, i32 noundef 2722, i64 noundef %35, i64 noundef %36, ptr noundef nonnull @.str.96) #10
  br label %54

38:                                               ; preds = %31
  %39 = call ptr @H5VL_vol_object(i64 noundef %0)
  store ptr %39, ptr %7, align 8
  %40 = icmp eq ptr %39, null
  br i1 %40, label %41, label %45

41:                                               ; preds = %38
  %42 = load i64, ptr @H5E_ARGS_g, align 8
  %43 = load i64, ptr @H5E_BADTYPE_g, align 8
  %44 = call i32 (ptr, ptr, i32, i64, i64, ptr, ...) @H5E_printf_stack(ptr noundef nonnull @.str.2, ptr noundef nonnull @__func__.H5VL_setup_idx_args, i32 noundef 2726, i64 noundef %42, i64 noundef %43, ptr noundef nonnull @.str.70) #10
  br label %54

45:                                               ; preds = %38
  %46 = getelementptr inbounds i8, ptr %8, i64 4
  store i32 2, ptr %46, align 4
  %47 = getelementptr inbounds i8, ptr %8, i64 8
  store ptr %1, ptr %47, align 8
  %48 = getelementptr inbounds i8, ptr %8, i64 16
  store i32 %2, ptr %48, align 8
  %49 = getelementptr inbounds i8, ptr %8, i64 20
  store i32 %3, ptr %49, align 4
  %50 = getelementptr inbounds i8, ptr %8, i64 24
  store i64 %4, ptr %50, align 8
  %51 = load i64, ptr %10, align 8
  %52 = getelementptr inbounds i8, ptr %8, i64 32
  store i64 %51, ptr %52, align 8
  %53 = call i32 @H5I_get_type(i64 noundef %0) #10
  store i32 %53, ptr %8, align 8
  br label %54

54:                                               ; preds = %45, %41, %34, %27, %22, %17, %11
  %.0 = phi i32 [ -1, %22 ], [ -1, %27 ], [ -1, %34 ], [ -1, %41 ], [ 0, %45 ], [ -1, %17 ], [ -1, %11 ]
  ret i32 %.0
}